; Function Attrs: nounwind uwtable
define dso_local range(i32 0, 256) i32 @setTypeIsMember(ptr noundef readonly captures(none) %0, ptr noundef %1) local_unnamed_addr #0 {
  %3 = getelementptr inbounds i8, ptr %1, i64 -1
  %4 = load i8, ptr %3, align 1, !tbaa !54
  %5 = zext i8 %4 to i32
  %6 = and i32 %5, 7
  switch i32 %6, label %sdslen.exit [
    i32 0, label %7
    i32 1, label %10
    i32 2, label %14
    i32 3, label %18
    i32 4, label %22
  ]

7:                                                ; preds = %2
  %8 = lshr i32 %5, 3
  %9 = zext nneg i32 %8 to i64
  br label %sdslen.exit

10:                                               ; preds = %2
  %11 = getelementptr inbounds i8, ptr %1, i64 -3
  %12 = load i8, ptr %11, align 1, !tbaa !54
  %13 = zext i8 %12 to i64
  br label %sdslen.exit

14:                                               ; preds = %2
  %15 = getelementptr inbounds i8, ptr %1, i64 -5
  %16 = load i16, ptr %15, align 1, !tbaa !55
  %17 = zext i16 %16 to i64
  br label %sdslen.exit

18:                                               ; preds = %2
  %19 = getelementptr inbounds i8, ptr %1, i64 -9
  %20 = load i32, ptr %19, align 1, !tbaa !57
  %21 = zext i32 %20 to i64
  br label %sdslen.exit

22:                                               ; preds = %2
  %23 = getelementptr inbounds i8, ptr %1, i64 -17
  %24 = load i64, ptr %23, align 1, !tbaa !50
  br label %sdslen.exit

sdslen.exit:                                      ; preds = %2, %7, %10, %14, %18, %22
  %.0.i = phi i64 [ %24, %22 ], [ %21, %18 ], [ %17, %14 ], [ %13, %10 ], [ %9, %7 ], [ 0, %2 ]
  %25 = tail call i32 @setTypeIsMemberAux(ptr noundef %0, ptr noundef nonnull %1, i64 noundef %.0.i, i64 noundef 0, i32 noundef 1)
  ret i32 %25
}